; Function Attrs: mustprogress uwtable
define hidden noundef zeroext i1 @_ZNK4cvc58internal23CodatatypeBoundVariableneERKS1_(ptr noundef nonnull align 8 dereferenceable(24) %this, ptr noundef nonnull align 8 dereferenceable(24) %cbv) local_unnamed_addr #3 align 2 {
entry:
  %0 = load ptr, ptr %this, align 8
  %1 = load ptr, ptr %cbv, align 8
  %2 = load ptr, ptr %0, align 8
  %3 = load ptr, ptr %1, align 8
  %cmp.i.i = icmp eq ptr %2, %3
  br i1 %cmp.i.i, label %land.rhs.i, label %_ZNK4cvc58internal23CodatatypeBoundVariableeqERKS1_.exit

land.rhs.i:                                       ; preds = %entry
  %d_index.i = getelementptr inbounds nuw i8, ptr %this, i64 8
  %d_index4.i = getelementptr inbounds nuw i8, ptr %cbv, i64 8
  %call5.i = tail call noundef zeroext i1 @_ZNK4cvc58internal7IntegereqERKS1_(ptr noundef nonnull align 8 dereferenceable(16) %d_index.i, ptr noundef nonnull align 8 dereferenceable(16) %d_index4.i)
  %4 = xor i1 %call5.i, true
  br label %_ZNK4cvc58internal23CodatatypeBoundVariableeqERKS1_.exit

_ZNK4cvc58internal23CodatatypeBoundVariableeqERKS1_.exit: ; preds = %entry, %land.rhs.i
  %lnot = phi i1 [ true, %entry ], [ %4, %land.rhs.i ]
  ret i1 %lnot
}